; Function Attrs: null_pointer_is_valid sspstrong uwtable
define internal fastcc void @struct_xinput_FP3232(ptr noundef %0, ptr noundef captures(none) %1, ptr noundef %2, i32 noundef %3, i32 noundef %4) unnamed_addr #1 {
  %6 = icmp sgt i32 %4, 0
  br i1 %6, label %.lr.ph.preheader, label %._crit_edge

.lr.ph.preheader:                                 ; preds = %5
  %.pre = load i32, ptr %1, align 4
  br label %.lr.ph

.lr.ph:                                           ; preds = %.lr.ph.preheader, %.lr.ph
  %7 = phi i32 [ %20, %.lr.ph ], [ %.pre, %.lr.ph.preheader ]
  %.016 = phi i32 [ %21, %.lr.ph ], [ 0, %.lr.ph.preheader ]
  %8 = load i32, ptr @hf_x11_struct_xinput_FP3232, align 4
  %9 = tail call ptr @proto_tree_add_item(ptr noundef %2, i32 noundef %8, ptr noundef %0, i32 noundef %7, i32 noundef 8, i32 noundef 0)
  %10 = load i32, ptr @ett_x11_rectangle, align 4
  %11 = tail call ptr @proto_item_add_subtree(ptr noundef %9, i32 noundef %10)
  %12 = load i32, ptr @hf_x11_struct_xinput_FP3232_integral, align 4
  %13 = load i32, ptr %1, align 4
  %14 = tail call ptr @proto_tree_add_item(ptr noundef %11, i32 noundef %12, ptr noundef %0, i32 noundef %13, i32 noundef 4, i32 noundef %3)
  %15 = load i32, ptr %1, align 4
  %16 = add i32 %15, 4
  store i32 %16, ptr %1, align 4
  %17 = load i32, ptr @hf_x11_struct_xinput_FP3232_frac, align 4
  %18 = tail call ptr @proto_tree_add_item(ptr noundef %11, i32 noundef %17, ptr noundef %0, i32 noundef %16, i32 noundef 4, i32 noundef %3)
  %19 = load i32, ptr %1, align 4
  %20 = add i32 %19, 4
  store i32 %20, ptr %1, align 4
  %21 = add nuw nsw i32 %.016, 1
  %exitcond.not = icmp eq i32 %21, %4
  br i1 %exitcond.not, label %._crit_edge, label %.lr.ph, !llvm.loop !111

._crit_edge:                                      ; preds = %.lr.ph, %5
  ret void
}